(lp0
(S'cppflags'
p1
ccopy_reg
_reconstructor
p2
(cino.utils
SpaceList
p3
c__builtin__
list
p4
(lp5
S'-mmcu=atmega328p'
p6
aS'-DF_CPU=16000000L'
p7
aS'-DARDUINO=105'
p8
aS'-I/usr/share/arduino/hardware/arduino/cores/arduino'
p9
aS'-ffunction-sections'
p10
aS'-fdata-sections'
p11
aS'-g'
p12
aS'-Os'
p13
aS'-w'
p14
aS'-I/usr/share/arduino/hardware/arduino/variants/standard'
p15
aS'-Ilib/ArduinoJson'
p16
aS'-Ilib/ArduinoJson/src'
p17
aS'-Ilib/ArduinoJson/src/ArduinoJson'
p18
aS'-Ilib/ArduinoJson/src/ArduinoJson/Data'
p19
aS'-Ilib/ArduinoJson/src/ArduinoJson/StringTraits'
p20
aS'-Ilib/ArduinoJson/src/ArduinoJson/Polyfills'
p21
aS'-Ilib/ArduinoJson/src/ArduinoJson/TypeTraits'
p22
aS'-Ilib/ArduinoJson/src/ArduinoJson/Deserialization'
p23
aS'-Ilib/ArduinoJson/src/ArduinoJson/Serialization'
p24
aS'-Ilib/ArduinoJson/src/ArduinoJson/Data'
p25
aS'-Ilib/ArduinoJson/src/ArduinoJson/StringTraits'
p26
aS'-Ilib/ArduinoJson/src/ArduinoJson/Polyfills'
p27
aS'-Ilib/ArduinoJson/src/ArduinoJson/TypeTraits'
p28
aS'-Ilib/ArduinoJson/src/ArduinoJson/Deserialization'
p29
aS'-Ilib/ArduinoJson/src/ArduinoJson/Serialization'
p30
aS'-Ilib/Adafruit_NeoPixel'
p31
aS'-I/usr/share/arduino/libraries/Ethernet'
p32
aS'-I/usr/share/arduino/libraries/Ethernet/utility'
p33
aS'-I/usr/share/arduino/libraries/SPI'
p34
aS'-I/usr/share/arduino/hardware/arduino/cores/arduino'
p35
aS'-I/usr/share/arduino/hardware/arduino/cores/arduino/avr-libc'
p36
atp37
Rp38
tp39
a(S'cxx'
p40
S'/usr/share/arduino/hardware/tools/avr/bin/avr-g++'
p41
tp42
a(S'build_dir'
p43
S'.build/uno'
p44
tp45
a(S'avrdude'
p46
S'/usr/share/arduino/hardware/tools/avrdude'
p47
tp48
a(S'ar'
p49
S'/usr/share/arduino/hardware/tools/avr/bin/avr-ar'
p50
tp51
a(S'names'
p52
(dp53
S'cpp'
p54
S'%s.cpp'
p55
sS'obj'
p56
S'%s.o'
p57
sS'lib'
p58
S'lib%s.a'
p59
sS'deps'
p60
S'%s.d'
p61
stp62
a(S'ldflags'
p63
g2
(g3
g4
(lp64
g6
aS'-Wl,-Os'
p65
aS'-Wl,--gc-sections'
p66
atp67
Rp68
tp69
a(S'arduino_lib_version'
p70
g2
(cino.environment
Version
p71
c__builtin__
tuple
p72
(I1
I0
I5
tp73
tp74
Rp75
tp76
a(S'objcopy'
p77
S'/usr/share/arduino/hardware/tools/avr/bin/avr-objcopy'
p78
tp79
a(S'board_models'
p80
cino.environment
BoardModels
p81
((lp82
(lp83
S'uno'
p84
a(dp85
S'bootloader'
p86
(dp87
S'extended_fuses'
p88
S'0x05'
p89
sS'high_fuses'
p90
S'0xde'
p91
sS'low_fuses'
p92
S'0xff'
p93
sS'lock_bits'
p94
S'0x0F'
p95
sS'file'
p96
S'optiboot_atmega328.hex'
p97
sS'path'
p98
S'optiboot'
p99
sS'unlock_bits'
p100
S'0x3F'
p101
ssS'upload'
p102
(dp103
S'speed'
p104
S'115200'
p105
sS'maximum_size'
p106
S'32256'
p107
sS'protocol'
p108
S'arduino'
p109
ssS'name'
p110
S'Arduino Uno'
p111
sS'build'
p112
(dp113
S'core'
p114
S'arduino'
p115
sS'mcu'
p116
S'atmega328p'
p117
sS'f_cpu'
p118
S'16000000L'
p119
sS'variant'
p120
S'standard'
p121
ssaa(lp122
S'atmega328'
p123
a(dp124
S'bootloader'
p125
(dp126
S'extended_fuses'
p127
S'0x05'
p128
sS'high_fuses'
p129
S'0xDA'
p130
sS'low_fuses'
p131
S'0xFF'
p132
sS'lock_bits'
p133
S'0x0F'
p134
sS'file'
p135
S'ATmegaBOOT_168_atmega328.hex'
p136
sS'path'
p137
S'atmega'
p138
sS'unlock_bits'
p139
S'0x3F'
p140
ssS'upload'
p141
(dp142
S'speed'
p143
S'57600'
p144
sS'maximum_size'
p145
S'30720'
p146
sS'protocol'
p147
S'arduino'
p148
ssS'name'
p149
S'Arduino Duemilanove w/ ATmega328'
p150
sS'build'
p151
(dp152
S'core'
p153
S'arduino'
p154
sS'mcu'
p155
S'atmega328p'
p156
sS'f_cpu'
p157
S'16000000L'
p158
sS'variant'
p159
S'standard'
p160
ssaa(lp161
S'diecimila'
p162
a(dp163
S'bootloader'
p164
(dp165
S'extended_fuses'
p166
S'0x00'
p167
sS'high_fuses'
p168
S'0xdd'
p169
sS'low_fuses'
p170
S'0xff'
p171
sS'lock_bits'
p172
S'0x0F'
p173
sS'file'
p174
S'ATmegaBOOT_168_diecimila.hex'
p175
sS'path'
p176
S'atmega'
p177
sS'unlock_bits'
p178
S'0x3F'
p179
ssS'upload'
p180
(dp181
S'speed'
p182
S'19200'
p183
sS'maximum_size'
p184
S'14336'
p185
sS'protocol'
p186
S'arduino'
p187
ssS'name'
p188
S'Arduino Diecimila or Duemilanove w/ ATmega168'
p189
sS'build'
p190
(dp191
S'core'
p192
S'arduino'
p193
sS'mcu'
p194
S'atmega168'
p195
sS'f_cpu'
p196
S'16000000L'
p197
sS'variant'
p198
S'standard'
p199
ssaa(lp200
S'nano328'
p201
a(dp202
S'bootloader'
p203
(dp204
S'extended_fuses'
p205
S'0x05'
p206
sS'high_fuses'
p207
S'0xDA'
p208
sS'low_fuses'
p209
S'0xFF'
p210
sS'lock_bits'
p211
S'0x0F'
p212
sS'file'
p213
S'ATmegaBOOT_168_atmega328.hex'
p214
sS'path'
p215
S'atmega'
p216
sS'unlock_bits'
p217
S'0x3F'
p218
ssS'upload'
p219
(dp220
S'speed'
p221
S'57600'
p222
sS'maximum_size'
p223
S'30720'
p224
sS'protocol'
p225
S'arduino'
p226
ssS'name'
p227
S'Arduino Nano w/ ATmega328'
p228
sS'build'
p229
(dp230
S'core'
p231
S'arduino'
p232
sS'mcu'
p233
S'atmega328p'
p234
sS'f_cpu'
p235
S'16000000L'
p236
sS'variant'
p237
S'eightanaloginputs'
p238
ssaa(lp239
S'nano'
p240
a(dp241
S'bootloader'
p242
(dp243
S'extended_fuses'
p244
S'0x00'
p245
sS'high_fuses'
p246
S'0xdd'
p247
sS'low_fuses'
p248
S'0xff'
p249
sS'lock_bits'
p250
S'0x0F'
p251
sS'file'
p252
S'ATmegaBOOT_168_diecimila.hex'
p253
sS'path'
p254
S'atmega'
p255
sS'unlock_bits'
p256
S'0x3F'
p257
ssS'upload'
p258
(dp259
S'speed'
p260
S'19200'
p261
sS'maximum_size'
p262
S'14336'
p263
sS'protocol'
p264
S'arduino'
p265
ssS'name'
p266
S'Arduino Nano w/ ATmega168'
p267
sS'build'
p268
(dp269
S'core'
p270
S'arduino'
p271
sS'mcu'
p272
S'atmega168'
p273
sS'f_cpu'
p274
S'16000000L'
p275
sS'variant'
p276
S'eightanaloginputs'
p277
ssaa(lp278
S'mega2560'
p279
a(dp280
S'bootloader'
p281
(dp282
S'extended_fuses'
p283
S'0xFD'
p284
sS'high_fuses'
p285
S'0xD8'
p286
sS'low_fuses'
p287
S'0xFF'
p288
sS'lock_bits'
p289
S'0x0F'
p290
sS'file'
p291
S'stk500boot_v2_mega2560.hex'
p292
sS'path'
p293
S'stk500v2'
p294
sS'unlock_bits'
p295
S'0x3F'
p296
ssS'upload'
p297
(dp298
S'speed'
p299
S'115200'
p300
sS'maximum_size'
p301
S'258048'
p302
sS'protocol'
p303
S'wiring'
p304
ssS'name'
p305
S'Arduino Mega 2560 or Mega ADK'
p306
sS'build'
p307
(dp308
S'core'
p309
S'arduino'
p310
sS'mcu'
p311
S'atmega2560'
p312
sS'f_cpu'
p313
S'16000000L'
p314
sS'variant'
p315
S'mega'
p316
ssaa(lp317
S'mega'
p318
a(dp319
S'bootloader'
p320
(dp321
S'extended_fuses'
p322
S'0xF5'
p323
sS'high_fuses'
p324
S'0xDA'
p325
sS'low_fuses'
p326
S'0xFF'
p327
sS'lock_bits'
p328
S'0x0F'
p329
sS'file'
p330
S'ATmegaBOOT_168_atmega1280.hex'
p331
sS'path'
p332
S'atmega'
p333
sS'unlock_bits'
p334
S'0x3F'
p335
ssS'upload'
p336
(dp337
S'speed'
p338
S'57600'
p339
sS'maximum_size'
p340
S'126976'
p341
sS'protocol'
p342
S'arduino'
p343
ssS'name'
p344
S'Arduino Mega (ATmega1280)'
p345
sS'build'
p346
(dp347
S'core'
p348
S'arduino'
p349
sS'mcu'
p350
S'atmega1280'
p351
sS'f_cpu'
p352
S'16000000L'
p353
sS'variant'
p354
S'mega'
p355
ssaa(lp356
S'leonardo'
p357
a(dp358
S'bootloader'
p359
(dp360
S'extended_fuses'
p361
S'0xcb'
p362
sS'high_fuses'
p363
S'0xd8'
p364
sS'low_fuses'
p365
S'0xff'
p366
sS'lock_bits'
p367
S'0x2F'
p368
sS'file'
p369
S'Caterina-Leonardo.hex'
p370
sS'path'
p371
S'caterina'
p372
sS'unlock_bits'
p373
S'0x3F'
p374
ssS'upload'
p375
(dp376
S'speed'
p377
S'57600'
p378
sS'maximum_size'
p379
S'28672'
p380
sS'protocol'
p381
S'avr109'
p382
sS'disable_flushing'
p383
S'true'
p384
ssS'name'
p385
S'Arduino Leonardo'
p386
sS'build'
p387
(dp388
S'core'
p389
S'arduino'
p390
sS'f_cpu'
p391
S'16000000L'
p392
sS'vid'
p393
S'0x2341'
p394
sS'pid'
p395
S'0x8036'
p396
sS'variant'
p397
S'leonardo'
p398
sS'mcu'
p399
S'atmega32u4'
p400
ssaa(lp401
S'esplora'
p402
a(dp403
S'bootloader'
p404
(dp405
S'extended_fuses'
p406
S'0xcb'
p407
sS'high_fuses'
p408
S'0xd8'
p409
sS'low_fuses'
p410
S'0xff'
p411
sS'lock_bits'
p412
S'0x2F'
p413
sS'file'
p414
S'Caterina-Esplora.hex'
p415
sS'path'
p416
S'caterina'
p417
sS'unlock_bits'
p418
S'0x3F'
p419
ssS'upload'
p420
(dp421
S'speed'
p422
S'57600'
p423
sS'maximum_size'
p424
S'28672'
p425
sS'protocol'
p426
S'avr109'
p427
sS'disable_flushing'
p428
S'true'
p429
ssS'name'
p430
S'Arduino Esplora'
p431
sS'build'
p432
(dp433
S'core'
p434
S'arduino'
p435
sS'f_cpu'
p436
S'16000000L'
p437
sS'vid'
p438
S'0x2341'
p439
sS'pid'
p440
S'0x803C'
p441
sS'variant'
p442
S'leonardo'
p443
sS'mcu'
p444
S'atmega32u4'
p445
ssaa(lp446
S'micro'
p447
a(dp448
S'bootloader'
p449
(dp450
S'extended_fuses'
p451
S'0xcb'
p452
sS'high_fuses'
p453
S'0xd8'
p454
sS'low_fuses'
p455
S'0xff'
p456
sS'lock_bits'
p457
S'0x2F'
p458
sS'file'
p459
S'Caterina-Micro.hex'
p460
sS'path'
p461
S'caterina'
p462
sS'unlock_bits'
p463
S'0x3F'
p464
ssS'upload'
p465
(dp466
S'speed'
p467
S'57600'
p468
sS'maximum_size'
p469
S'28672'
p470
sS'protocol'
p471
S'avr109'
p472
sS'disable_flushing'
p473
S'true'
p474
ssS'name'
p475
S'Arduino Micro'
p476
sS'build'
p477
(dp478
S'core'
p479
S'arduino'
p480
sS'f_cpu'
p481
S'16000000L'
p482
sS'vid'
p483
S'0x2341'
p484
sS'pid'
p485
S'0x8037'
p486
sS'variant'
p487
S'micro'
p488
sS'mcu'
p489
S'atmega32u4'
p490
ssaa(lp491
S'mini328'
p492
a(dp493
S'bootloader'
p494
(dp495
S'extended_fuses'
p496
S'0x05'
p497
sS'high_fuses'
p498
S'0xd8'
p499
sS'low_fuses'
p500
S'0xff'
p501
sS'lock_bits'
p502
S'0x0F'
p503
sS'file'
p504
S'optiboot_atmega328-Mini.hex'
p505
sS'path'
p506
S'optiboot'
p507
sS'unlock_bits'
p508
S'0x3F'
p509
ssS'upload'
p510
(dp511
S'speed'
p512
S'115200'
p513
sS'maximum_size'
p514
S'28672'
p515
sS'protocol'
p516
S'arduino'
p517
ssS'name'
p518
S'Arduino Mini w/ ATmega328'
p519
sS'build'
p520
(dp521
S'core'
p522
S'arduino'
p523
sS'mcu'
p524
S'atmega328p'
p525
sS'f_cpu'
p526
S'16000000L'
p527
sS'variant'
p528
S'eightanaloginputs'
p529
ssaa(lp530
S'mini'
p531
a(dp532
S'bootloader'
p533
(dp534
S'extended_fuses'
p535
S'0x00'
p536
sS'high_fuses'
p537
S'0xdd'
p538
sS'low_fuses'
p539
S'0xff'
p540
sS'lock_bits'
p541
S'0x0F'
p542
sS'file'
p543
S'ATmegaBOOT_168_ng.hex'
p544
sS'path'
p545
S'atmega'
p546
sS'unlock_bits'
p547
S'0x3F'
p548
ssS'upload'
p549
(dp550
S'speed'
p551
S'19200'
p552
sS'maximum_size'
p553
S'14336'
p554
sS'protocol'
p555
S'arduino'
p556
ssS'name'
p557
S'Arduino Mini w/ ATmega168'
p558
sS'build'
p559
(dp560
S'core'
p561
S'arduino'
p562
sS'mcu'
p563
S'atmega168'
p564
sS'f_cpu'
p565
S'16000000L'
p566
sS'variant'
p567
S'eightanaloginputs'
p568
ssaa(lp569
S'ethernet'
p570
a(dp571
S'bootloader'
p572
(dp573
S'extended_fuses'
p574
S'0x05'
p575
sS'high_fuses'
p576
S'0xde'
p577
sS'low_fuses'
p578
S'0xff'
p579
sS'lock_bits'
p580
S'0x0F'
p581
sS'file'
p582
S'optiboot_atmega328.hex'
p583
sS'path'
p584
S'optiboot'
p585
sS'unlock_bits'
p586
S'0x3F'
p587
ssS'upload'
p588
(dp589
S'speed'
p590
S'115200'
p591
sS'maximum_size'
p592
S'32256'
p593
sS'protocol'
p594
S'arduino'
p595
ssS'name'
p596
S'Arduino Ethernet'
p597
sS'build'
p598
(dp599
S'f_cpu'
p600
S'16000000L'
p601
sS'mcu'
p602
S'atmega328p'
p603
sS'variant'
p604
S'standard'
p605
sS'core'
p606
S'arduino'
p607
ssaa(lp608
S'fio'
p609
a(dp610
S'bootloader'
p611
(dp612
S'extended_fuses'
p613
S'0x05'
p614
sS'high_fuses'
p615
S'0xDA'
p616
sS'low_fuses'
p617
S'0xFF'
p618
sS'lock_bits'
p619
S'0x0F'
p620
sS'file'
p621
S'ATmegaBOOT_168_atmega328_pro_8MHz.hex'
p622
sS'path'
p623
S'arduino:atmega'
p624
sS'unlock_bits'
p625
S'0x3F'
p626
ssS'upload'
p627
(dp628
S'speed'
p629
S'57600'
p630
sS'maximum_size'
p631
S'30720'
p632
sS'protocol'
p633
S'arduino'
p634
ssS'name'
p635
S'Arduino Fio'
p636
sS'build'
p637
(dp638
S'core'
p639
S'arduino'
p640
sS'mcu'
p641
S'atmega328p'
p642
sS'f_cpu'
p643
S'8000000L'
p644
sS'variant'
p645
S'eightanaloginputs'
p646
ssaa(lp647
S'bt328'
p648
a(dp649
S'bootloader'
p650
(dp651
S'extended_fuses'
p652
S'0x05'
p653
sS'high_fuses'
p654
S'0xd8'
p655
sS'low_fuses'
p656
S'0xff'
p657
sS'lock_bits'
p658
S'0x0F'
p659
sS'file'
p660
S'ATmegaBOOT_168_atmega328_bt.hex'
p661
sS'path'
p662
S'bt'
p663
sS'unlock_bits'
p664
S'0x3F'
p665
ssS'upload'
p666
(dp667
S'speed'
p668
S'19200'
p669
sS'maximum_size'
p670
S'28672'
p671
sS'protocol'
p672
S'arduino'
p673
sS'disable_flushing'
p674
S'true'
p675
ssS'name'
p676
S'Arduino BT w/ ATmega328'
p677
sS'build'
p678
(dp679
S'core'
p680
S'arduino'
p681
sS'mcu'
p682
S'atmega328p'
p683
sS'f_cpu'
p684
S'16000000L'
p685
sS'variant'
p686
S'eightanaloginputs'
p687
ssaa(lp688
S'bt'
p689
a(dp690
S'bootloader'
p691
(dp692
S'extended_fuses'
p693
S'0x00'
p694
sS'high_fuses'
p695
S'0xdd'
p696
sS'low_fuses'
p697
S'0xff'
p698
sS'lock_bits'
p699
S'0x0F'
p700
sS'file'
p701
S'ATmegaBOOT_168.hex'
p702
sS'path'
p703
S'bt'
p704
sS'unlock_bits'
p705
S'0x3F'
p706
ssS'upload'
p707
(dp708
S'speed'
p709
S'19200'
p710
sS'maximum_size'
p711
S'14336'
p712
sS'protocol'
p713
S'arduino'
p714
sS'disable_flushing'
p715
S'true'
p716
ssS'name'
p717
S'Arduino BT w/ ATmega168'
p718
sS'build'
p719
(dp720
S'core'
p721
S'arduino'
p722
sS'mcu'
p723
S'atmega168'
p724
sS'f_cpu'
p725
S'16000000L'
p726
sS'variant'
p727
S'eightanaloginputs'
p728
ssaa(lp729
S'LilyPadUSB'
p730
a(dp731
S'bootloader'
p732
(dp733
S'extended_fuses'
p734
S'0xce'
p735
sS'high_fuses'
p736
S'0xd8'
p737
sS'low_fuses'
p738
S'0xff'
p739
sS'lock_bits'
p740
S'0x2F'
p741
sS'file'
p742
S'Caterina-LilyPadUSB.hex'
p743
sS'path'
p744
S'caterina-LilyPadUSB'
p745
sS'unlock_bits'
p746
S'0x3F'
p747
ssS'upload'
p748
(dp749
S'speed'
p750
S'57600'
p751
sS'maximum_size'
p752
S'28672'
p753
sS'protocol'
p754
S'avr109'
p755
sS'disable_flushing'
p756
S'true'
p757
ssS'name'
p758
S'LilyPad Arduino USB'
p759
sS'build'
p760
(dp761
S'core'
p762
S'arduino'
p763
sS'f_cpu'
p764
S'8000000L'
p765
sS'vid'
p766
S'0x1B4F'
p767
sS'pid'
p768
S'0x9208'
p769
sS'variant'
p770
S'leonardo'
p771
sS'mcu'
p772
S'atmega32u4'
p773
ssaa(lp774
S'lilypad328'
p775
a(dp776
S'bootloader'
p777
(dp778
S'extended_fuses'
p779
S'0x05'
p780
sS'high_fuses'
p781
S'0xDA'
p782
sS'low_fuses'
p783
S'0xFF'
p784
sS'lock_bits'
p785
S'0x0F'
p786
sS'file'
p787
S'ATmegaBOOT_168_atmega328_pro_8MHz.hex'
p788
sS'path'
p789
S'atmega'
p790
sS'unlock_bits'
p791
S'0x3F'
p792
ssS'upload'
p793
(dp794
S'speed'
p795
S'57600'
p796
sS'maximum_size'
p797
S'30720'
p798
sS'protocol'
p799
S'arduino'
p800
ssS'name'
p801
S'LilyPad Arduino w/ ATmega328'
p802
sS'build'
p803
(dp804
S'core'
p805
S'arduino'
p806
sS'mcu'
p807
S'atmega328p'
p808
sS'f_cpu'
p809
S'8000000L'
p810
sS'variant'
p811
S'standard'
p812
ssaa(lp813
S'lilypad'
p814
a(dp815
S'bootloader'
p816
(dp817
S'extended_fuses'
p818
S'0x00'
p819
sS'high_fuses'
p820
S'0xdd'
p821
sS'low_fuses'
p822
S'0xe2'
p823
sS'lock_bits'
p824
S'0x0F'
p825
sS'file'
p826
S'LilyPadBOOT_168.hex'
p827
sS'path'
p828
S'lilypad'
p829
sS'unlock_bits'
p830
S'0x3F'
p831
ssS'upload'
p832
(dp833
S'speed'
p834
S'19200'
p835
sS'maximum_size'
p836
S'14336'
p837
sS'protocol'
p838
S'arduino'
p839
ssS'name'
p840
S'LilyPad Arduino w/ ATmega168'
p841
sS'build'
p842
(dp843
S'core'
p844
S'arduino'
p845
sS'mcu'
p846
S'atmega168'
p847
sS'f_cpu'
p848
S'8000000L'
p849
sS'variant'
p850
S'standard'
p851
ssaa(lp852
S'pro5v328'
p853
a(dp854
S'bootloader'
p855
(dp856
S'extended_fuses'
p857
S'0x05'
p858
sS'high_fuses'
p859
S'0xDA'
p860
sS'low_fuses'
p861
S'0xFF'
p862
sS'lock_bits'
p863
S'0x0F'
p864
sS'file'
p865
S'ATmegaBOOT_168_atmega328.hex'
p866
sS'path'
p867
S'atmega'
p868
sS'unlock_bits'
p869
S'0x3F'
p870
ssS'upload'
p871
(dp872
S'speed'
p873
S'57600'
p874
sS'maximum_size'
p875
S'30720'
p876
sS'protocol'
p877
S'arduino'
p878
ssS'name'
p879
S'Arduino Pro or Pro Mini (5V, 16 MHz) w/ ATmega328'
p880
sS'build'
p881
(dp882
S'core'
p883
S'arduino'
p884
sS'mcu'
p885
S'atmega328p'
p886
sS'f_cpu'
p887
S'16000000L'
p888
sS'variant'
p889
S'standard'
p890
ssaa(lp891
S'pro5v'
p892
a(dp893
S'bootloader'
p894
(dp895
S'extended_fuses'
p896
S'0x00'
p897
sS'high_fuses'
p898
S'0xdd'
p899
sS'low_fuses'
p900
S'0xff'
p901
sS'lock_bits'
p902
S'0x0F'
p903
sS'file'
p904
S'ATmegaBOOT_168_diecimila.hex'
p905
sS'path'
p906
S'atmega'
p907
sS'unlock_bits'
p908
S'0x3F'
p909
ssS'upload'
p910
(dp911
S'speed'
p912
S'19200'
p913
sS'maximum_size'
p914
S'14336'
p915
sS'protocol'
p916
S'arduino'
p917
ssS'name'
p918
S'Arduino Pro or Pro Mini (5V, 16 MHz) w/ ATmega168'
p919
sS'build'
p920
(dp921
S'core'
p922
S'arduino'
p923
sS'mcu'
p924
S'atmega168'
p925
sS'f_cpu'
p926
S'16000000L'
p927
sS'variant'
p928
S'standard'
p929
ssaa(lp930
S'pro328'
p931
a(dp932
S'bootloader'
p933
(dp934
S'extended_fuses'
p935
S'0x05'
p936
sS'high_fuses'
p937
S'0xDA'
p938
sS'low_fuses'
p939
S'0xFF'
p940
sS'lock_bits'
p941
S'0x0F'
p942
sS'file'
p943
S'ATmegaBOOT_168_atmega328_pro_8MHz.hex'
p944
sS'path'
p945
S'atmega'
p946
sS'unlock_bits'
p947
S'0x3F'
p948
ssS'upload'
p949
(dp950
S'speed'
p951
S'57600'
p952
sS'maximum_size'
p953
S'30720'
p954
sS'protocol'
p955
S'arduino'
p956
ssS'name'
p957
S'Arduino Pro or Pro Mini (3.3V, 8 MHz) w/ ATmega328'
p958
sS'build'
p959
(dp960
S'core'
p961
S'arduino'
p962
sS'mcu'
p963
S'atmega328p'
p964
sS'f_cpu'
p965
S'8000000L'
p966
sS'variant'
p967
S'standard'
p968
ssaa(lp969
S'pro'
p970
a(dp971
S'bootloader'
p972
(dp973
S'extended_fuses'
p974
S'0x00'
p975
sS'high_fuses'
p976
S'0xdd'
p977
sS'low_fuses'
p978
S'0xc6'
p979
sS'lock_bits'
p980
S'0x0F'
p981
sS'file'
p982
S'ATmegaBOOT_168_pro_8MHz.hex'
p983
sS'path'
p984
S'atmega'
p985
sS'unlock_bits'
p986
S'0x3F'
p987
ssS'upload'
p988
(dp989
S'speed'
p990
S'19200'
p991
sS'maximum_size'
p992
S'14336'
p993
sS'protocol'
p994
S'arduino'
p995
ssS'name'
p996
S'Arduino Pro or Pro Mini (3.3V, 8 MHz) w/ ATmega168'
p997
sS'build'
p998
(dp999
S'core'
p1000
S'arduino'
p1001
sS'mcu'
p1002
S'atmega168'
p1003
sS'f_cpu'
p1004
S'8000000L'
p1005
sS'variant'
p1006
S'standard'
p1007
ssaa(lp1008
S'atmega168'
p1009
a(dp1010
S'bootloader'
p1011
(dp1012
S'extended_fuses'
p1013
S'0x00'
p1014
sS'high_fuses'
p1015
S'0xdd'
p1016
sS'low_fuses'
p1017
S'0xff'
p1018
sS'lock_bits'
p1019
S'0x0F'
p1020
sS'file'
p1021
S'ATmegaBOOT_168_ng.hex'
p1022
sS'path'
p1023
S'atmega'
p1024
sS'unlock_bits'
p1025
S'0x3F'
p1026
ssS'upload'
p1027
(dp1028
S'speed'
p1029
S'19200'
p1030
sS'maximum_size'
p1031
S'14336'
p1032
sS'protocol'
p1033
S'arduino'
p1034
ssS'name'
p1035
S'Arduino NG or older w/ ATmega168'
p1036
sS'build'
p1037
(dp1038
S'core'
p1039
S'arduino'
p1040
sS'mcu'
p1041
S'atmega168'
p1042
sS'f_cpu'
p1043
S'16000000L'
p1044
sS'variant'
p1045
S'standard'
p1046
ssaa(lp1047
S'atmega8'
p1048
a(dp1049
S'bootloader'
p1050
(dp1051
S'high_fuses'
p1052
S'0xca'
p1053
sS'low_fuses'
p1054
S'0xdf'
p1055
sS'lock_bits'
p1056
S'0x0F'
p1057
sS'file'
p1058
S'ATmegaBOOT-prod-firmware-2009-11-07.hex'
p1059
sS'path'
p1060
S'atmega8'
p1061
sS'unlock_bits'
p1062
S'0x3F'
p1063
ssS'upload'
p1064
(dp1065
S'speed'
p1066
S'19200'
p1067
sS'maximum_size'
p1068
S'7168'
p1069
sS'protocol'
p1070
S'arduino'
p1071
ssS'name'
p1072
S'Arduino NG or older w/ ATmega8'
p1073
sS'build'
p1074
(dp1075
S'core'
p1076
S'arduino'
p1077
sS'mcu'
p1078
S'atmega8'
p1079
sS'f_cpu'
p1080
S'16000000L'
p1081
sS'variant'
p1082
S'standard'
p1083
ssaa(lp1084
S'robotControl'
p1085
a(dp1086
S'bootloader'
p1087
(dp1088
S'extended_fuses'
p1089
S'0xcb'
p1090
sS'high_fuses'
p1091
S'0xd8'
p1092
sS'low_fuses'
p1093
S'0xff'
p1094
sS'lock_bits'
p1095
S'0x2F'
p1096
sS'file'
p1097
S'Caterina-Robot-Control.hex'
p1098
sS'path'
p1099
S'caterina-Arduino_Robot'
p1100
sS'unlock_bits'
p1101
S'0x3F'
p1102
ssS'upload'
p1103
(dp1104
S'speed'
p1105
S'57600'
p1106
sS'maximum_size'
p1107
S'28672'
p1108
sS'protocol'
p1109
S'avr109'
p1110
sS'disable_flushing'
p1111
S'true'
p1112
ssS'name'
p1113
S'Arduino Robot Control'
p1114
sS'build'
p1115
(dp1116
S'core'
p1117
S'robot'
p1118
sS'f_cpu'
p1119
S'16000000L'
p1120
sS'vid'
p1121
S'0x2341'
p1122
sS'pid'
p1123
S'0x8038'
p1124
sS'variant'
p1125
S'robot_control'
p1126
sS'mcu'
p1127
S'atmega32u4'
p1128
ssaa(lp1129
S'robotMotor'
p1130
a(dp1131
S'bootloader'
p1132
(dp1133
S'extended_fuses'
p1134
S'0xcb'
p1135
sS'high_fuses'
p1136
S'0xd8'
p1137
sS'low_fuses'
p1138
S'0xff'
p1139
sS'lock_bits'
p1140
S'0x2F'
p1141
sS'file'
p1142
S'Caterina-Robot-Motor.hex'
p1143
sS'path'
p1144
S'caterina-Arduino_Robot'
p1145
sS'unlock_bits'
p1146
S'0x3F'
p1147
ssS'upload'
p1148
(dp1149
S'speed'
p1150
S'57600'
p1151
sS'maximum_size'
p1152
S'28672'
p1153
sS'protocol'
p1154
S'avr109'
p1155
sS'disable_flushing'
p1156
S'true'
p1157
ssS'name'
p1158
S'Arduino Robot Motor'
p1159
sS'build'
p1160
(dp1161
S'core'
p1162
S'robot'
p1163
sS'f_cpu'
p1164
S'16000000L'
p1165
sS'vid'
p1166
S'0x2341'
p1167
sS'pid'
p1168
S'0x8039'
p1169
sS'variant'
p1170
S'robot_motor'
p1171
sS'mcu'
p1172
S'atmega32u4'
p1173
ssaatp1174
Rp1175
(dp1176
S'default'
p1177
S'uno'
p1178
sbtp1179
a(S'used_libs'
p1180
(lp1181
S'lib/ArduinoJson'
p1182
aS'lib/Adafruit_NeoPixel'
p1183
aS'/usr/share/arduino/libraries/Ethernet'
p1184
aS'/usr/share/arduino/libraries/SPI'
p1185
aS'/usr/share/arduino/hardware/arduino/cores/arduino'
p1186
atp1187
a(S'make'
p1188
S'/usr/share/arduino/hardware/tools/avr/bin/make'
p1189
tp1190
a(S'arduino_libraries_dir'
p1191
S'/usr/share/arduino/libraries'
p1192
tp1193
a(S'cc'
p1194
S'/usr/share/arduino/hardware/tools/avr/bin/avr-gcc'
p1195
tp1196
a(S'cflags'
p1197
g2
(g3
g4
(lp1198
tp1199
Rp1200
tp1201
a(S'cxxflags'
p1202
g2
(g3
g4
(lp1203
S'-fno-exceptions'
p1204
atp1205
Rp1206
tp1207
a(S'arduino_variants_dir'
p1208
S'/usr/share/arduino/hardware/arduino/variants'
p1209
tp1210
a(S'serial'
p1211
S'/usr/bin/picocom'
p1212
tp1213
a(S'stty'
p1214
S'/bin/stty'
p1215
tp1216
a(S'version.txt'
p1217
S'/usr/share/arduino/lib/version.txt'
p1218
tp1219
a(S'arduino_core_dir'
p1220
g1186
tp1221
a(S'boards.txt'
p1222
S'/usr/share/arduino/hardware/arduino/boards.txt'
p1223
tp1224
a(S'avrdude.conf'
p1225
S'/usr/share/arduino/hardware/tools/avrdude.conf'
p1226
tp1227
a(S'deps'
p1228
g2
(g3
g4
(lp1229
S'.build/uno/src/dependencies.d'
p1230
aS'.build/uno/arduino/dependencies.d'
p1231
aS'.build/uno/ArduinoJson/dependencies.d'
p1232
aS'.build/uno/Ethernet/dependencies.d'
p1233
aS'.build/uno/Adafruit_NeoPixel/dependencies.d'
p1234
aS'.build/uno/SPI/dependencies.d'
p1235
atp1236
Rp1237
tp1238
a.